target datalayout = "e-m:e-p270:32:32-p271:32:32-p272:64:64-i64:64-i128:128-f80:128-n8:16:32:64-S128"
target triple = "x86_64-unknown-linux-gnu"

%"class.std::__cxx11::basic_string" = type { %"struct.std::__cxx11::basic_string<char>::_Alloc_hider", i64, %union.anon }
%"struct.std::__cxx11::basic_string<char>::_Alloc_hider" = type { ptr }
%union.anon = type { i64, [8 x i8] }
%"class.folly::SharedMutexImpl" = type { %"struct.std::atomic.16" }
%"struct.std::atomic.16" = type { %"struct.std::__atomic_base.17" }
%"struct.std::__atomic_base.17" = type { i32 }
%"class.facebook::velox::memory::MemoryPool" = type { ptr, %"class.std::enable_shared_from_this", %"class.std::__cxx11::basic_string", i32, i16, %"class.std::shared_ptr", i64, i8, i8, i8, i8, i8, %"struct.std::atomic", %"class.std::__exception_ptr::exception_ptr", %"class.folly::SharedMutexImpl", %"class.std::unordered_map" }
%"class.std::enable_shared_from_this" = type { %"class.std::weak_ptr" }
%"class.std::weak_ptr" = type { %"class.std::__weak_ptr" }
%"class.std::__weak_ptr" = type { ptr, %"class.std::__weak_count" }
%"class.std::__weak_count" = type { ptr }
%"class.std::shared_ptr" = type { %"class.std::__shared_ptr" }
%"class.std::__shared_ptr" = type { ptr, %"class.std::__shared_count" }
%"class.std::__shared_count" = type { ptr }
%"struct.std::atomic" = type { %"struct.std::__atomic_base" }
%"struct.std::__atomic_base" = type { i8 }
%"class.std::__exception_ptr::exception_ptr" = type { ptr }
%"class.std::unordered_map" = type { %"class.std::_Hashtable" }
%"class.std::_Hashtable" = type { ptr, i64, %"struct.std::__detail::_Hash_node_base", i64, %"struct.std::__detail::_Prime_rehash_policy", ptr }
%"struct.std::__detail::_Hash_node_base" = type { ptr }
%"struct.std::__detail::_Prime_rehash_policy" = type { float, i64 }
%"class.facebook::velox::memory::ContiguousAllocation" = type { ptr, ptr, i64, i64 }

; Function Attrs: mustprogress nounwind uwtable
define linkonce_odr noundef i64 @_ZNK8facebook5velox6memory20ContiguousAllocation4sizeEv(ptr noundef nonnull align 8 dereferenceable(32) %this) #3 comdat align 2 {
entry:
  %this.addr = alloca ptr, align 8
  store ptr %this, ptr %this.addr, align 8
  %this1 = load ptr, ptr %this.addr, align 8
  %size_ = getelementptr inbounds %"class.facebook::velox::memory::ContiguousAllocation", ptr %this1, i32 0, i32 2
  %0 = load i64, ptr %size_, align 8
  ret i64 %0
}

; Function Attrs: mustprogress nounwind uwtable
define linkonce_odr noundef ptr @_ZNK8facebook5velox6memory20ContiguousAllocation4dataIhEEPT_v(ptr noundef nonnull align 8 dereferenceable(32) %this) #3 comdat align 2 {
entry:
  %this.addr = alloca ptr, align 8
  store ptr %this, ptr %this.addr, align 8
  %this1 = load ptr, ptr %this.addr, align 8
  %data_ = getelementptr inbounds %"class.facebook::velox::memory::ContiguousAllocation", ptr %this1, i32 0, i32 1
  %0 = load ptr, ptr %data_, align 8
  ret ptr %0
}

; Function Attrs: mustprogress uwtable
define linkonce_odr noundef zeroext i1 @_ZNK8facebook5velox6memory20ContiguousAllocation5emptyEv(ptr noundef nonnull align 8 dereferenceable(32) %this) #0 comdat align 2 {
entry:
  %this.addr.i = alloca ptr, align 8
  %this.addr = alloca ptr, align 8
  store ptr %this, ptr %this.addr, align 8
  %this1 = load ptr, ptr %this.addr, align 8
  store ptr %this1, ptr %this.addr.i, align 8
  %this1.i = load ptr, ptr %this.addr.i, align 8
  %size_.i = getelementptr inbounds %"class.facebook::velox::memory::ContiguousAllocation", ptr %this1.i, i32 0, i32 2
  %0 = load i64, ptr %size_.i, align 8
  %cmp.i = icmp eq i64 %0, 0
  %conv.i = zext i1 %cmp.i to i32
  %data_.i = getelementptr inbounds %"class.facebook::velox::memory::ContiguousAllocation", ptr %this1.i, i32 0, i32 1
  %1 = load ptr, ptr %data_.i, align 8
  %cmp2.i = icmp eq ptr %1, null
  %conv3.i = zext i1 %cmp2.i to i32
  %cmp4.i = icmp eq i32 %conv.i, %conv3.i
  %lnot.i = xor i1 %cmp4.i, true
  br i1 %lnot.i, label %if.then.i, label %if.end.i

if.then.i:                                        ; preds = %entry
  call void @llvm.trap()
  br label %if.end.i

if.end.i:                                         ; preds = %if.then.i, %entry
  %size_6.i = getelementptr inbounds %"class.facebook::velox::memory::ContiguousAllocation", ptr %this1.i, i32 0, i32 2
  %2 = load i64, ptr %size_6.i, align 8
  %cmp7.i = icmp ne i64 %2, 0
  br i1 %cmp7.i, label %lor.end.i, label %lor.rhs.i

lor.rhs.i:                                        ; preds = %if.end.i
  %3 = load ptr, ptr %this1.i, align 8
  %cmp8.i = icmp eq ptr %3, null
  br label %lor.end.i

lor.end.i:                                        ; preds = %lor.rhs.i, %if.end.i
  %4 = phi i1 [ true, %if.end.i ], [ %cmp8.i, %lor.rhs.i ]
  %lnot9.i = xor i1 %4, true
  br i1 %lnot9.i, label %if.then11.i, label %_ZNK8facebook5velox6memory20ContiguousAllocation11sanityCheckEv.exit

if.then11.i:                                      ; preds = %lor.end.i
  call void @llvm.trap()
  br label %_ZNK8facebook5velox6memory20ContiguousAllocation11sanityCheckEv.exit

_ZNK8facebook5velox6memory20ContiguousAllocation11sanityCheckEv.exit: ; preds = %if.then11.i, %lor.end.i
  %maxSize_ = getelementptr inbounds %"class.facebook::velox::memory::ContiguousAllocation", ptr %this1, i32 0, i32 3
  %5 = load i64, ptr %maxSize_, align 8
  %cmp = icmp eq i64 %5, 0
  ret i1 %cmp
}

; Function Attrs: mustprogress uwtable
define void @_ZN8facebook5velox6memory14MemoryPoolImpl13recordFreeDbgERKNS1_20ContiguousAllocationE(ptr noundef nonnull align 8 dereferenceable(480) %this, ptr noundef nonnull align 8 dereferenceable(32) %allocation) #0 align 2 {
entry:
  %this.addr = alloca ptr, align 8
  %allocation.addr = alloca ptr, align 8
  store ptr %this, ptr %this.addr, align 8
  store ptr %allocation, ptr %allocation.addr, align 8
  %this1 = load ptr, ptr %this.addr, align 8
  %debugEnabled_ = getelementptr inbounds %"class.facebook::velox::memory::MemoryPool", ptr %this1, i32 0, i32 10
  %0 = load i8, ptr %debugEnabled_, align 1
  %tobool = trunc i8 %0 to i1
  %lnot = xor i1 %tobool, true
  br i1 %lnot, label %if.then, label %if.end

if.then:                                          ; preds = %entry
  call void @llvm.trap()
  br label %if.end

if.end:                                           ; preds = %if.then, %entry
  %call = call noundef zeroext i1 @_ZN8facebook5velox6memory14MemoryPoolImpl13needRecordDbgEb(ptr noundef nonnull align 8 dereferenceable(480) %this1, i1 noundef zeroext false)
  br i1 %call, label %lor.lhs.false, label %if.then3

lor.lhs.false:                                    ; preds = %if.end
  %1 = load ptr, ptr %allocation.addr, align 8
  %call2 = call noundef zeroext i1 @_ZNK8facebook5velox6memory20ContiguousAllocation5emptyEv(ptr noundef nonnull align 8 dereferenceable(32) %1)
  br i1 %call2, label %if.then3, label %if.end4

if.then3:                                         ; preds = %lor.lhs.false, %if.end
  br label %return

if.end4:                                          ; preds = %lor.lhs.false
  %2 = load ptr, ptr %allocation.addr, align 8
  %call5 = call noundef ptr @_ZNK8facebook5velox6memory20ContiguousAllocation4dataIhEEPT_v(ptr noundef nonnull align 8 dereferenceable(32) %2)
  %3 = load ptr, ptr %allocation.addr, align 8
  %call6 = call noundef i64 @_ZNK8facebook5velox6memory20ContiguousAllocation4sizeEv(ptr noundef nonnull align 8 dereferenceable(32) %3)
  call void @_ZN8facebook5velox6memory14MemoryPoolImpl13recordFreeDbgEPKvm(ptr noundef nonnull align 8 dereferenceable(480) %this1, ptr noundef %call5, i64 noundef %call6)
  br label %return

return:                                           ; preds = %if.end4, %if.then3
  ret void
}