; Function Attrs: mustprogress uwtable
define void @_ZN8facebook5velox6memory14MemoryPoolImpl13recordFreeDbgERKNS1_20ContiguousAllocationE(ptr noundef nonnull align 8 dereferenceable(480) %this, ptr nocapture noundef nonnull readonly align 8 dereferenceable(32) %allocation) local_unnamed_addr #0 align 2 {
entry:
  %debugEnabled_ = getelementptr inbounds i8, ptr %this, i64 91
  %0 = load i8, ptr %debugEnabled_, align 1
  %1 = and i8 %0, 1
  %tobool.not = icmp eq i8 %1, 0
  br i1 %tobool.not, label %if.then, label %if.end

if.then:                                          ; preds = %entry
  tail call void @llvm.trap()
  unreachable

if.end:                                           ; preds = %entry
  %call = tail call noundef zeroext i1 @_ZN8facebook5velox6memory14MemoryPoolImpl13needRecordDbgEb(ptr noundef nonnull align 8 dereferenceable(480) %this, i1 zeroext poison)
  br i1 %call, label %lor.lhs.false, label %return

lor.lhs.false:                                    ; preds = %if.end
  %size_.i.i = getelementptr inbounds i8, ptr %allocation, i64 16
  %2 = load i64, ptr %size_.i.i, align 8
  %cmp.i.i = icmp eq i64 %2, 0
  %data_.i.i = getelementptr inbounds i8, ptr %allocation, i64 8
  %3 = load ptr, ptr %data_.i.i, align 8
  %4 = icmp eq ptr %3, null
  %lnot.i.i = xor i1 %cmp.i.i, %4
  br i1 %lnot.i.i, label %if.then.i.i, label %if.end.i.i

if.then.i.i:                                      ; preds = %lor.lhs.false
  tail call void @llvm.trap()
  unreachable

if.end.i.i:                                       ; preds = %lor.lhs.false
  %5 = load ptr, ptr %allocation, align 8
  %cmp8.i.i = icmp ne ptr %5, null
  %lnot9.i.i = select i1 %cmp.i.i, i1 %cmp8.i.i, i1 false
  br i1 %lnot9.i.i, label %if.then11.i.i, label %_ZNK8facebook5velox6memory20ContiguousAllocation5emptyEv.exit

if.then11.i.i:                                    ; preds = %if.end.i.i
  tail call void @llvm.trap()
  unreachable

_ZNK8facebook5velox6memory20ContiguousAllocation5emptyEv.exit: ; preds = %if.end.i.i
  %maxSize_.i = getelementptr inbounds i8, ptr %allocation, i64 24
  %6 = load i64, ptr %maxSize_.i, align 8
  %cmp.i = icmp eq i64 %6, 0
  br i1 %cmp.i, label %return, label %if.end4

if.end4:                                          ; preds = %_ZNK8facebook5velox6memory20ContiguousAllocation5emptyEv.exit
  tail call void @_ZN8facebook5velox6memory14MemoryPoolImpl13recordFreeDbgEPKvm(ptr noundef nonnull align 8 dereferenceable(480) %this, ptr noundef %3, i64 noundef %2)
  br label %return

return:                                           ; preds = %if.end, %_ZNK8facebook5velox6memory20ContiguousAllocation5emptyEv.exit, %if.end4
  ret void
}